target datalayout = "e-m:e-p270:32:32-p271:32:32-p272:64:64-i64:64-i128:128-f80:128-n8:16:32:64-S128"
target triple = "x86_64-unknown-linux-gnu"

; Function Attrs: mustprogress nounwind uwtable
define internal noundef i32 @_ZN12_GLOBAL__N_114getScriptPropsE11UScriptCode(i32 noundef %script) #1 {
entry:
  %retval = alloca i32, align 4
  %script.addr = alloca i32, align 4
  store i32 %script, ptr %script.addr, align 4
  %0 = load i32, ptr %script.addr, align 4
  %cmp = icmp sle i32 0, %0
  br i1 %cmp, label %land.lhs.true, label %if.else

land.lhs.true:                                    ; preds = %entry
  %1 = load i32, ptr %script.addr, align 4
  %cmp1 = icmp slt i32 %1, 200
  br i1 %cmp1, label %if.then, label %if.else

if.then:                                          ; preds = %land.lhs.true
  %2 = load i32, ptr %script.addr, align 4
  %idxprom = sext i32 %2 to i64
  %arrayidx = getelementptr inbounds [200 x i32], ptr @_ZN12_GLOBAL__N_112SCRIPT_PROPSE, i64 0, i64 %idxprom
  %3 = load i32, ptr %arrayidx, align 4
  store i32 %3, ptr %retval, align 4
  br label %return

if.else:                                          ; preds = %land.lhs.true, %entry
  store i32 0, ptr %retval, align 4
  br label %return

return:                                           ; preds = %if.else, %if.then
  %4 = load i32, ptr %retval, align 4
  ret i32 %4
}

; Function Attrs: mustprogress uwtable
define signext i8 @uscript_breaksBetweenLetters_75(i32 noundef %script) #0 {
entry:
  %script.addr = alloca i32, align 4
  store i32 %script, ptr %script.addr, align 4
  %0 = load i32, ptr %script.addr, align 4
  %call = call noundef i32 @_ZN12_GLOBAL__N_114getScriptPropsE11UScriptCode(i32 noundef %0)
  %and = and i32 %call, 33554432
  %cmp = icmp ne i32 %and, 0
  %conv = zext i1 %cmp to i8
  ret i8 %conv
}